; Function Attrs: nofree norecurse nosync nounwind memory(read, inaccessiblemem: none) uwtable
define i32 @Acb_ComputeSuppCost(ptr noundef readonly captures(none) %0, ptr noundef readonly captures(none) %1, i32 noundef %2) local_unnamed_addr #14 {
  %4 = getelementptr i8, ptr %0, i64 4
  %.val = load i32, ptr %4, align 4
  %5 = icmp sgt i32 %.val, 0
  br i1 %5, label %.lr.ph, label %.critedge

.lr.ph:                                           ; preds = %3
  %6 = getelementptr i8, ptr %0, i64 8
  %.val11 = load ptr, ptr %6, align 8
  %7 = getelementptr i8, ptr %1, i64 8
  %.val10 = load ptr, ptr %7, align 8
  %wide.trip.count = zext nneg i32 %.val to i64
  br label %8

8:                                                ; preds = %.lr.ph, %8
  %indvars.iv = phi i64 [ 0, %.lr.ph ], [ %indvars.iv.next, %8 ]
  %.013 = phi i32 [ 0, %.lr.ph ], [ %16, %8 ]
  %9 = getelementptr inbounds nuw i32, ptr %.val11, i64 %indvars.iv
  %10 = load i32, ptr %9, align 4
  %11 = ashr i32 %10, 1
  %12 = sub nsw i32 %11, %2
  %13 = sext i32 %12 to i64
  %14 = getelementptr inbounds i32, ptr %.val10, i64 %13
  %15 = load i32, ptr %14, align 4
  %16 = add nsw i32 %15, %.013
  %indvars.iv.next = add nuw nsw i64 %indvars.iv, 1
  %exitcond.not = icmp eq i64 %indvars.iv.next, %wide.trip.count
  br i1 %exitcond.not, label %.critedge, label %8, !llvm.loop !92

.critedge:                                        ; preds = %8, %3
  %.0.lcssa = phi i32 [ 0, %3 ], [ %16, %8 ]
  ret i32 %.0.lcssa
}